target datalayout = "e-m:e-p270:32:32-p271:32:32-p272:64:64-i64:64-i128:128-f80:128-n8:16:32:64-S128"
target triple = "x86_64-pc-linux-gnu"

; Function Attrs: null_pointer_is_valid sspstrong uwtable
define i32 @dissect_ber_restricted_string(i1 noundef zeroext %0, i32 noundef %1, ptr noundef %2, ptr noundef %3, ptr noundef %4, i32 noundef %5, i32 noundef %6, ptr noundef %7) #0 {
  %9 = alloca i8, align 1
  %10 = alloca i32, align 4
  %11 = alloca ptr, align 8
  %12 = alloca ptr, align 8
  %13 = alloca ptr, align 8
  %14 = alloca i32, align 4
  %15 = alloca i32, align 4
  %16 = alloca ptr, align 8
  %17 = zext i1 %0 to i8
  store i8 %17, ptr %9, align 1
  store i32 %1, ptr %10, align 4
  store ptr %2, ptr %11, align 8
  store ptr %3, ptr %12, align 8
  store ptr %4, ptr %13, align 8
  store i32 %5, ptr %14, align 4
  store i32 %6, ptr %15, align 4
  store ptr %7, ptr %16, align 8
  %18 = load i8, ptr %9, align 1, !range !6, !noundef !7
  %19 = trunc i8 %18 to i1
  %20 = load i32, ptr %10, align 4
  %21 = load ptr, ptr %11, align 8
  %22 = load ptr, ptr %12, align 8
  %23 = load ptr, ptr %13, align 8
  %24 = load i32, ptr %14, align 4
  %25 = load i32, ptr %15, align 4
  %26 = load ptr, ptr %16, align 8
  %27 = call i32 @dissect_ber_constrained_restricted_string(i1 noundef zeroext %19, i32 noundef %20, ptr noundef %21, ptr noundef %22, ptr noundef %23, i32 noundef %24, i32 noundef -1, i32 noundef -1, i32 noundef %25, ptr noundef %26)
  ret i32 %27
}

; Function Attrs: null_pointer_is_valid sspstrong uwtable
define hidden i32 @dissect_ber_GeneralString(ptr noundef %0, ptr noundef %1, ptr noundef %2, i32 noundef %3, i32 noundef %4, ptr noundef %5, i32 noundef %6) #0 {
  %8 = alloca ptr, align 8
  %9 = alloca ptr, align 8
  %10 = alloca ptr, align 8
  %11 = alloca i32, align 4
  %12 = alloca i32, align 4
  %13 = alloca ptr, align 8
  %14 = alloca i32, align 4
  %15 = alloca ptr, align 8
  %16 = alloca i32, align 4
  store ptr %0, ptr %8, align 8
  store ptr %1, ptr %9, align 8
  store ptr %2, ptr %10, align 8
  store i32 %3, ptr %11, align 4
  store i32 %4, ptr %12, align 4
  store ptr %5, ptr %13, align 8
  store i32 %6, ptr %14, align 4
  call void @llvm.lifetime.start.p0(i64 8, ptr %15) #12
  store ptr null, ptr %15, align 8
  call void @llvm.lifetime.start.p0(i64 4, ptr %16) #12
  %17 = load ptr, ptr %8, align 8
  %18 = load ptr, ptr %9, align 8
  %19 = load ptr, ptr %10, align 8
  %20 = load i32, ptr %11, align 4
  %21 = load i32, ptr %12, align 4
  %22 = load ptr, ptr %13, align 8
  %23 = icmp ne ptr %22, null
  br i1 %23, label %24, label %25

24:                                               ; preds = %7
  br label %26

25:                                               ; preds = %7
  br label %26

26:                                               ; preds = %25, %24
  %27 = phi ptr [ %15, %24 ], [ null, %25 ]
  %28 = call i32 @dissect_ber_restricted_string(i1 noundef zeroext false, i32 noundef 27, ptr noundef %17, ptr noundef %18, ptr noundef %19, i32 noundef %20, i32 noundef %21, ptr noundef %27)
  store i32 %28, ptr %11, align 4
  %29 = load ptr, ptr %13, align 8
  %30 = icmp ne ptr %29, null
  br i1 %30, label %31, label %64

31:                                               ; preds = %26
  %32 = load ptr, ptr %15, align 8
  %33 = icmp ne ptr %32, null
  br i1 %33, label %34, label %63

34:                                               ; preds = %31
  %35 = load ptr, ptr %15, align 8
  %36 = call i32 @tvb_reported_length(ptr noundef %35)
  store i32 %36, ptr %16, align 4
  %37 = load i32, ptr %16, align 4
  %38 = load i32, ptr %14, align 4
  %39 = icmp uge i32 %37, %38
  br i1 %39, label %40, label %52

40:                                               ; preds = %34
  %41 = load ptr, ptr %15, align 8
  %42 = load ptr, ptr %13, align 8
  %43 = load i32, ptr %14, align 4
  %44 = sub i32 %43, 1
  %45 = zext i32 %44 to i64
  %46 = call ptr @tvb_memcpy(ptr noundef %41, ptr noundef %42, i32 noundef 0, i64 noundef %45)
  %47 = load ptr, ptr %13, align 8
  %48 = load i32, ptr %14, align 4
  %49 = sub i32 %48, 1
  %50 = zext i32 %49 to i64
  %51 = getelementptr i8, ptr %47, i64 %50
  store i8 0, ptr %51, align 1
  br label %62

52:                                               ; preds = %34
  %53 = load ptr, ptr %15, align 8
  %54 = load ptr, ptr %13, align 8
  %55 = load i32, ptr %16, align 4
  %56 = sext i32 %55 to i64
  %57 = call ptr @tvb_memcpy(ptr noundef %53, ptr noundef %54, i32 noundef 0, i64 noundef %56)
  %58 = load ptr, ptr %13, align 8
  %59 = load i32, ptr %16, align 4
  %60 = sext i32 %59 to i64
  %61 = getelementptr i8, ptr %58, i64 %60
  store i8 0, ptr %61, align 1
  br label %62

62:                                               ; preds = %52, %40
  br label %63

63:                                               ; preds = %62, %31
  br label %64

64:                                               ; preds = %63, %26
  %65 = load i32, ptr %11, align 4
  call void @llvm.lifetime.end.p0(i64 4, ptr %16) #12
  call void @llvm.lifetime.end.p0(i64 8, ptr %15) #12
  ret i32 %65
}