; Function Attrs: null_pointer_is_valid sspstrong uwtable
define hidden i32 @dissect_ber_GeneralString(ptr noundef %0, ptr noundef %1, ptr noundef %2, i32 noundef %3, i32 noundef %4, ptr noundef %5, i32 noundef %6) local_unnamed_addr #0 {
  %8 = alloca ptr, align 8
  call void @llvm.lifetime.start.p0(i64 8, ptr nonnull %8) #14
  store ptr null, ptr %8, align 8
  %9 = icmp ne ptr %5, null
  %. = select i1 %9, ptr %8, ptr null
  %10 = call i32 @dissect_ber_constrained_restricted_string(i1 noundef zeroext false, i32 noundef 27, ptr noundef %0, ptr noundef %1, ptr noundef %2, i32 noundef %3, i32 noundef -1, i32 noundef -1, i32 noundef %4, ptr noundef %.)
  %11 = load ptr, ptr %8, align 8
  %12 = icmp ne ptr %11, null
  %or.cond = select i1 %9, i1 %12, i1 false
  br i1 %or.cond, label %.sink.split, label %20

.sink.split:                                      ; preds = %7
  %13 = call i32 @tvb_reported_length(ptr noundef nonnull %11)
  %.not = icmp ult i32 %13, %6
  %14 = load ptr, ptr %8, align 8
  %15 = sext i32 %13 to i64
  %16 = add i32 %6, -1
  %17 = zext i32 %16 to i64
  %.sink = select i1 %.not, i64 %15, i64 %17
  %18 = call ptr @tvb_memcpy(ptr noundef %14, ptr noundef nonnull %5, i32 noundef 0, i64 noundef %.sink)
  %19 = getelementptr i8, ptr %5, i64 %.sink
  store i8 0, ptr %19, align 1
  br label %20

20:                                               ; preds = %.sink.split, %7
  call void @llvm.lifetime.end.p0(i64 8, ptr nonnull %8) #14
  ret i32 %10
}